; Function Attrs: nounwind uwtable
define hidden noundef zeroext i1 @_mi_os_commit(ptr noundef %addr, i64 noundef %size, ptr noundef writeonly %is_zero, ptr readnone captures(none) %tld_stats) local_unnamed_addr #1 {
entry:
  %os_is_zero = alloca i8, align 1
  %cmp = icmp ne ptr %is_zero, null
  br i1 %cmp, label %if.then, label %if.end

if.then:                                          ; preds = %entry
  store i8 0, ptr %is_zero, align 1
  br label %if.end

if.end:                                           ; preds = %if.then, %entry
  tail call void @_mi_stat_increase(ptr noundef nonnull getelementptr inbounds nuw (i8, ptr @_mi_stats_main, i64 96), i64 noundef %size) #7
  tail call void @_mi_stat_counter_increase(ptr noundef nonnull getelementptr inbounds nuw (i8, ptr @_mi_stats_main, i64 512), i64 noundef 1) #7
  %cmp1.i = icmp eq i64 %size, 0
  %cmp2.i = icmp eq ptr %addr, null
  %or.cond.i = or i1 %cmp2.i, %cmp1.i
  br i1 %or.cond.i, label %return, label %if.end4.i

if.end4.i:                                        ; preds = %if.end
  %0 = load i64, ptr @mi_os_mem_config, align 8
  %1 = ptrtoint ptr %addr to i64
  %2 = tail call range(i64 0, 65) i64 @llvm.ctpop.i64(i64 %0)
  %cmp.i.i.i = icmp samesign ult i64 %2, 2
  %add.ptr1345.i = getelementptr inbounds i8, ptr %addr, i64 %size
  %3 = ptrtoint ptr %add.ptr1345.i to i64
  %sub.i.i2846.i = add i64 %3, -1
  %add.i.i3047.i = add i64 %sub.i.i2846.i, %0
  br i1 %cmp.i.i.i, label %if.then.i.i34.i, label %if.else.i.i31.i

if.then.i.i34.i:                                  ; preds = %if.end4.i
  %not.i.i18.i = sub i64 0, %0
  %and1.i.i19.i = and i64 %not.i.i18.i, %1
  %and1.i.i36.i = and i64 %add.i.i3047.i, %not.i.i18.i
  br label %cond.end16.i

if.else.i.i31.i:                                  ; preds = %if.end4.i
  %4 = urem i64 %1, %0
  %mul.i.i15.i = sub nuw i64 %1, %4
  %5 = urem i64 %add.i.i3047.i, %0
  %mul.i.i32.i = sub nuw i64 %add.i.i3047.i, %5
  br label %cond.end16.i

cond.end16.i:                                     ; preds = %if.else.i.i31.i, %if.then.i.i34.i
  %cond39.in.i = phi i64 [ %and1.i.i19.i, %if.then.i.i34.i ], [ %mul.i.i15.i, %if.else.i.i31.i ]
  %cond17.in.i = phi i64 [ %and1.i.i36.i, %if.then.i.i34.i ], [ %mul.i.i32.i, %if.else.i.i31.i ]
  %sub.ptr.sub.i = sub i64 %cond17.in.i, %cond39.in.i
  %cmp18.i = icmp slt i64 %sub.ptr.sub.i, 1
  br i1 %cmp18.i, label %return, label %if.end3

if.end3:                                          ; preds = %cond.end16.i
  %cond39.i = inttoptr i64 %cond39.in.i to ptr
  store i8 0, ptr %os_is_zero, align 1
  %call4 = call i32 @_mi_prim_commit(ptr noundef %cond39.i, i64 noundef %sub.ptr.sub.i, ptr noundef nonnull %os_is_zero) #7
  %cmp5.not = icmp eq i32 %call4, 0
  br i1 %cmp5.not, label %if.end7, label %if.then6

if.then6:                                         ; preds = %if.end3
  call void (ptr, ...) @_mi_warning_message(ptr noundef nonnull @.str, i32 noundef %call4, i32 noundef %call4, ptr noundef %cond39.i, i64 noundef %sub.ptr.sub.i) #7
  br label %return

if.end7:                                          ; preds = %if.end3
  %6 = load i8, ptr %os_is_zero, align 1
  %tobool = trunc i8 %6 to i1
  %or.cond = and i1 %cmp, %tobool
  br i1 %or.cond, label %if.then9, label %return

if.then9:                                         ; preds = %if.end7
  store i8 1, ptr %is_zero, align 1
  br label %return

return:                                           ; preds = %cond.end16.i, %if.end, %if.end7, %if.then9, %if.then6
  %retval.0 = phi i1 [ false, %if.then6 ], [ true, %if.then9 ], [ true, %if.end7 ], [ true, %if.end ], [ true, %cond.end16.i ]
  ret i1 %retval.0
}